target datalayout = "e-m:e-p270:32:32-p271:32:32-p272:64:64-i64:64-i128:128-f80:128-n8:16:32:64-S128"
target triple = "x86_64-pc-linux-gnu"

%struct.darktable_t = type { %struct.dt_codepath_t, i32, i32, ptr, ptr, ptr, ptr, ptr, ptr, ptr, ptr, ptr, ptr, ptr, ptr, ptr, ptr, ptr, ptr, ptr, ptr, ptr, ptr, ptr, ptr, ptr, ptr, ptr, ptr, ptr, [64 x %struct.dt_pthread_mutex_t], %struct.dt_pthread_mutex_t, %struct.dt_pthread_mutex_t, %struct.dt_pthread_mutex_t, %struct.dt_pthread_mutex_t, %struct.dt_pthread_mutex_t, ptr, ptr, ptr, ptr, ptr, ptr, ptr, ptr, ptr, ptr, ptr, ptr, ptr, %struct.dt_lua_state_t, ptr, double, ptr, i32, [47 x i32], i32, i32, ptr, ptr, %struct.dt_sys_resources_t, %struct.dt_backthumb_t, %struct.dt_gimp_t }
%struct.dt_codepath_t = type { i8, [3 x i8] }
%struct.dt_pthread_mutex_t = type { %union.pthread_mutex_t }
%union.pthread_mutex_t = type { %struct.__pthread_mutex_s }
%struct.__pthread_mutex_s = type { i32, i32, i32, i32, i32, i16, i16, %struct.__pthread_internal_list }
%struct.__pthread_internal_list = type { ptr, ptr }
%struct.dt_lua_state_t = type { i32 }
%struct.dt_sys_resources_t = type { i64, i64, ptr, ptr, i32 }
%struct.dt_backthumb_t = type { double, double, i32, i32, i32, i32 }
%struct.dt_gimp_t = type { i32, ptr, ptr, i32, i32 }
%struct._GdkRGBA = type { double, double, double, double }
%struct._GtkDarktableGradientSlider = type { %struct._GtkDrawingArea, ptr, i32, i32, i32, [10 x double], [10 x double], [10 x i32], double, double, [3 x double], i32, i32, i32, i32, i32, i32, i32, i32, i32, ptr }
%struct._GtkDrawingArea = type { %struct._GtkWidget, ptr }
%struct._GtkWidget = type { %struct._GObject, ptr }
%struct._GObject = type { %struct._GTypeInstance, i32, ptr }
%struct._GTypeInstance = type { ptr }
%struct.dt_gui_gtk_t = type { ptr, %struct.dt_gui_widgets_t, %struct.dt_gui_scrollbars_t, i32, ptr, i32, [39 x %struct._GdkRGBA], i32, i32, i32, i32, i32, double, double, double, double, ptr, double, double, double, double, i32, i32, [4096 x i8], i32, i32, i32, %struct.dt_pthread_mutex_t }
%struct.dt_gui_widgets_t = type { ptr, ptr, ptr, ptr, i32, i32, i32 }
%struct.dt_gui_scrollbars_t = type { ptr, ptr, i32 }

@.str.1 = private unnamed_addr constant [16 x i8] c"gslider != NULL\00", align 1
@darktable = external global %struct.darktable_t, align 8
@.str.2 = private unnamed_addr constant [14 x i8] c"value-changed\00", align 1
@__func__.dtgtk_gradient_slider_multivalue_set_values = private unnamed_addr constant [44 x i8] c"dtgtk_gradient_slider_multivalue_set_values\00", align 1
@.str.3 = private unnamed_addr constant [15 x i8] c"values != NULL\00", align 1

; Function Attrs: nounwind uwtable
define void @dtgtk_gradient_slider_multivalue_set_values(ptr noundef %0, ptr noundef %1) #0 {
  %3 = alloca ptr, align 8
  %4 = alloca ptr, align 8
  %5 = alloca i32, align 4
  %6 = alloca i32, align 4
  %7 = alloca i32, align 4
  %8 = alloca i32, align 4
  %9 = alloca i32, align 4
  store ptr %0, ptr %3, align 8, !tbaa !24
  store ptr %1, ptr %4, align 8, !tbaa !59
  br label %10

10:                                               ; preds = %2
  call void @llvm.lifetime.start.p0(i64 4, ptr %5) #11
  %11 = load ptr, ptr %3, align 8, !tbaa !24
  %12 = icmp ne ptr %11, null
  br i1 %12, label %13, label %14

13:                                               ; preds = %10
  store i32 1, ptr %5, align 4, !tbaa !13
  br label %15

14:                                               ; preds = %10
  store i32 0, ptr %5, align 4, !tbaa !13
  br label %15

15:                                               ; preds = %14, %13
  %16 = load i32, ptr %5, align 4, !tbaa !13
  store i32 %16, ptr %6, align 4, !tbaa !13
  call void @llvm.lifetime.end.p0(i64 4, ptr %5) #11
  %17 = load i32, ptr %6, align 4, !tbaa !13
  %18 = sext i32 %17 to i64
  %19 = call i64 @llvm.expect.i64(i64 %18, i64 1)
  %20 = icmp ne i64 %19, 0
  br i1 %20, label %21, label %22

21:                                               ; preds = %15
  br label %23

22:                                               ; preds = %15
  call void @g_return_if_fail_warning(ptr noundef null, ptr noundef @__func__.dtgtk_gradient_slider_multivalue_set_values, ptr noundef @.str.1)
  br label %121

23:                                               ; preds = %21
  br label %24

24:                                               ; preds = %23
  br label %25

25:                                               ; preds = %24
  call void @llvm.lifetime.start.p0(i64 4, ptr %7) #11
  %26 = load ptr, ptr %4, align 8, !tbaa !59
  %27 = icmp ne ptr %26, null
  br i1 %27, label %28, label %29

28:                                               ; preds = %25
  store i32 1, ptr %7, align 4, !tbaa !13
  br label %30

29:                                               ; preds = %25
  store i32 0, ptr %7, align 4, !tbaa !13
  br label %30

30:                                               ; preds = %29, %28
  %31 = load i32, ptr %7, align 4, !tbaa !13
  store i32 %31, ptr %8, align 4, !tbaa !13
  call void @llvm.lifetime.end.p0(i64 4, ptr %7) #11
  %32 = load i32, ptr %8, align 4, !tbaa !13
  %33 = sext i32 %32 to i64
  %34 = call i64 @llvm.expect.i64(i64 %33, i64 1)
  %35 = icmp ne i64 %34, 0
  br i1 %35, label %36, label %37

36:                                               ; preds = %30
  br label %38

37:                                               ; preds = %30
  call void @g_return_if_fail_warning(ptr noundef null, ptr noundef @__func__.dtgtk_gradient_slider_multivalue_set_values, ptr noundef @.str.3)
  br label %121

38:                                               ; preds = %36
  br label %39

39:                                               ; preds = %38
  call void @llvm.lifetime.start.p0(i64 4, ptr %9) #11
  store i32 0, ptr %9, align 4, !tbaa !13
  br label %40

40:                                               ; preds = %99, %39
  %41 = load i32, ptr %9, align 4, !tbaa !13
  %42 = load ptr, ptr %3, align 8, !tbaa !24
  %43 = getelementptr inbounds nuw %struct._GtkDarktableGradientSlider, ptr %42, i32 0, i32 4
  %44 = load i32, ptr %43, align 8, !tbaa !26
  %45 = icmp slt i32 %41, %44
  br i1 %45, label %47, label %46

46:                                               ; preds = %40
  call void @llvm.lifetime.end.p0(i64 4, ptr %9) #11
  br label %102

47:                                               ; preds = %40
  %48 = load ptr, ptr %3, align 8, !tbaa !24
  %49 = getelementptr inbounds nuw %struct._GtkDarktableGradientSlider, ptr %48, i32 0, i32 20
  %50 = load ptr, ptr %49, align 8, !tbaa !43
  %51 = load ptr, ptr %3, align 8, !tbaa !24
  %52 = load ptr, ptr %4, align 8, !tbaa !59
  %53 = load i32, ptr %9, align 4, !tbaa !13
  %54 = sext i32 %53 to i64
  %55 = getelementptr inbounds double, ptr %52, i64 %54
  %56 = load double, ptr %55, align 8, !tbaa !45
  %57 = fptrunc reassoc nsz arcp contract afn double %56 to float
  %58 = call reassoc nsz arcp contract afn float %50(ptr noundef %51, float noundef %57, i32 noundef 1)
  %59 = fpext reassoc nsz arcp contract afn float %58 to double
  %60 = fcmp reassoc nsz arcp contract afn ogt double %59, 1.000000e+00
  br i1 %60, label %61, label %62

61:                                               ; preds = %47
  br label %92

62:                                               ; preds = %47
  %63 = load ptr, ptr %3, align 8, !tbaa !24
  %64 = getelementptr inbounds nuw %struct._GtkDarktableGradientSlider, ptr %63, i32 0, i32 20
  %65 = load ptr, ptr %64, align 8, !tbaa !43
  %66 = load ptr, ptr %3, align 8, !tbaa !24
  %67 = load ptr, ptr %4, align 8, !tbaa !59
  %68 = load i32, ptr %9, align 4, !tbaa !13
  %69 = sext i32 %68 to i64
  %70 = getelementptr inbounds double, ptr %67, i64 %69
  %71 = load double, ptr %70, align 8, !tbaa !45
  %72 = fptrunc reassoc nsz arcp contract afn double %71 to float
  %73 = call reassoc nsz arcp contract afn float %65(ptr noundef %66, float noundef %72, i32 noundef 1)
  %74 = fpext reassoc nsz arcp contract afn float %73 to double
  %75 = fcmp reassoc nsz arcp contract afn olt double %74, 0.000000e+00
  br i1 %75, label %76, label %77

76:                                               ; preds = %62
  br label %90

77:                                               ; preds = %62
  %78 = load ptr, ptr %3, align 8, !tbaa !24
  %79 = getelementptr inbounds nuw %struct._GtkDarktableGradientSlider, ptr %78, i32 0, i32 20
  %80 = load ptr, ptr %79, align 8, !tbaa !43
  %81 = load ptr, ptr %3, align 8, !tbaa !24
  %82 = load ptr, ptr %4, align 8, !tbaa !59
  %83 = load i32, ptr %9, align 4, !tbaa !13
  %84 = sext i32 %83 to i64
  %85 = getelementptr inbounds double, ptr %82, i64 %84
  %86 = load double, ptr %85, align 8, !tbaa !45
  %87 = fptrunc reassoc nsz arcp contract afn double %86 to float
  %88 = call reassoc nsz arcp contract afn float %80(ptr noundef %81, float noundef %87, i32 noundef 1)
  %89 = fpext reassoc nsz arcp contract afn float %88 to double
  br label %90

90:                                               ; preds = %77, %76
  %91 = phi reassoc nsz arcp contract afn double [ 0.000000e+00, %76 ], [ %89, %77 ]
  br label %92

92:                                               ; preds = %90, %61
  %93 = phi reassoc nsz arcp contract afn double [ 1.000000e+00, %61 ], [ %91, %90 ]
  %94 = load ptr, ptr %3, align 8, !tbaa !24
  %95 = getelementptr inbounds nuw %struct._GtkDarktableGradientSlider, ptr %94, i32 0, i32 5
  %96 = load i32, ptr %9, align 4, !tbaa !13
  %97 = sext i32 %96 to i64
  %98 = getelementptr inbounds [10 x double], ptr %95, i64 0, i64 %97
  store double %93, ptr %98, align 8, !tbaa !45
  br label %99

99:                                               ; preds = %92
  %100 = load i32, ptr %9, align 4, !tbaa !13
  %101 = add nsw i32 %100, 1
  store i32 %101, ptr %9, align 4, !tbaa !13
  br label %40

102:                                              ; preds = %46
  %103 = load ptr, ptr %3, align 8, !tbaa !24
  %104 = getelementptr inbounds nuw %struct._GtkDarktableGradientSlider, ptr %103, i32 0, i32 4
  %105 = load i32, ptr %104, align 8, !tbaa !26
  %106 = icmp eq i32 %105, 1
  %107 = select i1 %106, i32 0, i32 -1
  %108 = load ptr, ptr %3, align 8, !tbaa !24
  %109 = getelementptr inbounds nuw %struct._GtkDarktableGradientSlider, ptr %108, i32 0, i32 2
  store i32 %107, ptr %109, align 8, !tbaa !41
  %110 = load ptr, ptr getelementptr inbounds nuw (%struct.darktable_t, ptr @darktable, i32 0, i32 14), align 8, !tbaa !61
  %111 = getelementptr inbounds nuw %struct.dt_gui_gtk_t, ptr %110, i32 0, i32 5
  %112 = load i32, ptr %111, align 8, !tbaa !95
  %113 = icmp ne i32 %112, 0
  br i1 %113, label %117, label %114

114:                                              ; preds = %102
  %115 = load ptr, ptr %3, align 8, !tbaa !24
  %116 = call ptr @g_type_check_instance_cast(ptr noundef %115, i64 noundef 80)
  call void (ptr, ptr, ...) @g_signal_emit_by_name(ptr noundef %116, ptr noundef @.str.2)
  br label %117

117:                                              ; preds = %114, %102
  %118 = load ptr, ptr %3, align 8, !tbaa !24
  %119 = call i64 @gtk_widget_get_type() #12
  %120 = call ptr @g_type_check_instance_cast(ptr noundef %118, i64 noundef %119)
  call void @gtk_widget_queue_draw(ptr noundef %120)
  br label %121

121:                                              ; preds = %117, %37, %22
  ret void
}