; Function Attrs: nounwind uwtable
define void @dtgtk_gradient_slider_multivalue_set_values(ptr noundef %0, ptr noundef readonly %1) local_unnamed_addr #0 {
  %.not = icmp eq ptr %0, null
  br i1 %.not, label %3, label %4, !prof !45

3:                                                ; preds = %2
  tail call void @g_return_if_fail_warning(ptr noundef null, ptr noundef nonnull @__func__.dtgtk_gradient_slider_multivalue_set_values, ptr noundef nonnull @.str.1) #14
  br label %47

4:                                                ; preds = %2
  %.not30 = icmp eq ptr %1, null
  br i1 %.not30, label %10, label %.preheader, !prof !45

.preheader:                                       ; preds = %4
  %5 = getelementptr inbounds nuw i8, ptr %0, i64 56
  %6 = load i32, ptr %5, align 8, !tbaa !16
  %7 = icmp sgt i32 %6, 0
  br i1 %7, label %.lr.ph, label %._crit_edge

.lr.ph:                                           ; preds = %.preheader
  %8 = getelementptr inbounds nuw i8, ptr %0, i64 344
  %9 = getelementptr inbounds nuw i8, ptr %0, i64 64
  br label %17

10:                                               ; preds = %4
  tail call void @g_return_if_fail_warning(ptr noundef null, ptr noundef nonnull @__func__.dtgtk_gradient_slider_multivalue_set_values, ptr noundef nonnull @.str.3) #14
  br label %47

._crit_edge.loopexit:                             ; preds = %36
  %11 = icmp ne i32 %39, 1
  %12 = sext i1 %11 to i32
  br label %._crit_edge

._crit_edge:                                      ; preds = %._crit_edge.loopexit, %.preheader
  %.lcssa = phi i32 [ -1, %.preheader ], [ %12, %._crit_edge.loopexit ]
  %13 = getelementptr inbounds nuw i8, ptr %0, i64 48
  store i32 %.lcssa, ptr %13, align 8, !tbaa !32
  %14 = load ptr, ptr getelementptr inbounds nuw (i8, ptr @darktable, i64 104), align 8, !tbaa !48
  %15 = getelementptr inbounds nuw i8, ptr %14, i64 96
  %16 = load i32, ptr %15, align 8, !tbaa !83
  %.not32 = icmp eq i32 %16, 0
  br i1 %.not32, label %42, label %44

17:                                               ; preds = %.lr.ph, %36
  %indvars.iv = phi i64 [ 0, %.lr.ph ], [ %indvars.iv.next, %36 ]
  %18 = load ptr, ptr %8, align 8, !tbaa !34
  %19 = getelementptr inbounds nuw double, ptr %1, i64 %indvars.iv
  %20 = load double, ptr %19, align 8, !tbaa !37
  %21 = fptrunc reassoc nsz arcp contract afn double %20 to float
  %22 = tail call reassoc nsz arcp contract afn float %18(ptr noundef nonnull %0, float noundef %21, i32 noundef 1) #14
  %23 = fcmp reassoc nsz arcp contract afn ogt float %22, 1.000000e+00
  br i1 %23, label %36, label %24

24:                                               ; preds = %17
  %25 = load ptr, ptr %8, align 8, !tbaa !34
  %26 = load double, ptr %19, align 8, !tbaa !37
  %27 = fptrunc reassoc nsz arcp contract afn double %26 to float
  %28 = tail call reassoc nsz arcp contract afn float %25(ptr noundef nonnull %0, float noundef %27, i32 noundef 1) #14
  %29 = fcmp reassoc nsz arcp contract afn olt float %28, 0.000000e+00
  br i1 %29, label %36, label %30

30:                                               ; preds = %24
  %31 = load ptr, ptr %8, align 8, !tbaa !34
  %32 = load double, ptr %19, align 8, !tbaa !37
  %33 = fptrunc reassoc nsz arcp contract afn double %32 to float
  %34 = tail call reassoc nsz arcp contract afn float %31(ptr noundef nonnull %0, float noundef %33, i32 noundef 1) #14
  %35 = fpext reassoc nsz arcp contract afn float %34 to double
  br label %36

36:                                               ; preds = %30, %24, %17
  %37 = phi reassoc nsz arcp contract afn double [ 1.000000e+00, %17 ], [ %35, %30 ], [ 0.000000e+00, %24 ]
  %38 = getelementptr inbounds nuw [10 x double], ptr %9, i64 0, i64 %indvars.iv
  store double %37, ptr %38, align 8, !tbaa !37
  %indvars.iv.next = add nuw nsw i64 %indvars.iv, 1
  %39 = load i32, ptr %5, align 8, !tbaa !16
  %40 = sext i32 %39 to i64
  %41 = icmp slt i64 %indvars.iv.next, %40
  br i1 %41, label %17, label %._crit_edge.loopexit

42:                                               ; preds = %._crit_edge
  %43 = tail call ptr @g_type_check_instance_cast(ptr noundef nonnull %0, i64 noundef 80) #14
  tail call void (ptr, ptr, ...) @g_signal_emit_by_name(ptr noundef %43, ptr noundef nonnull @.str.2) #14
  br label %44

44:                                               ; preds = %42, %._crit_edge
  %45 = tail call i64 @gtk_widget_get_type() #15
  %46 = tail call ptr @g_type_check_instance_cast(ptr noundef nonnull %0, i64 noundef %45) #14
  tail call void @gtk_widget_queue_draw(ptr noundef %46) #14
  br label %47

47:                                               ; preds = %44, %10, %3
  ret void
}